target datalayout = "e-m:e-p270:32:32-p271:32:32-p272:64:64-i64:64-i128:128-f80:128-n8:16:32:64-S128"
target triple = "x86_64-pc-linux-gnu"

%struct._zend_refcounted_h = type { i32, %union.anon.3 }
%union.anon.3 = type { i32 }
%struct._zend_string = type { %struct._zend_refcounted_h, i64, i64, [1 x i8] }

@.str.1 = private unnamed_addr constant [5 x i8] c"true\00", align 1
@.str.2 = private unnamed_addr constant [4 x i8] c"yes\00", align 1
@.str.3 = private unnamed_addr constant [3 x i8] c"on\00", align 1

; Function Attrs: nounwind uwtable
define zeroext i1 @zend_ini_parse_bool(ptr noundef %0) #0 {
  %2 = alloca i1, align 1
  %3 = alloca ptr, align 8
  store ptr %0, ptr %3, align 8
  %4 = load ptr, ptr %3, align 8
  %5 = getelementptr inbounds %struct._zend_string, ptr %4, i32 0, i32 2
  %6 = load i64, ptr %5, align 8
  %7 = icmp eq i64 %6, 4
  br i1 %7, label %8, label %17

8:                                                ; preds = %1
  %9 = load ptr, ptr %3, align 8
  %10 = getelementptr inbounds %struct._zend_string, ptr %9, i32 0, i32 3
  %11 = getelementptr inbounds [1 x i8], ptr %10, i64 0, i64 0
  %12 = load ptr, ptr %3, align 8
  %13 = getelementptr inbounds %struct._zend_string, ptr %12, i32 0, i32 2
  %14 = load i64, ptr %13, align 8
  %15 = call i32 @zend_binary_strcasecmp(ptr noundef %11, i64 noundef %14, ptr noundef @.str.1, i64 noundef 4)
  %16 = icmp ne i32 %15, 0
  br i1 %16, label %17, label %45

17:                                               ; preds = %8, %1
  %18 = load ptr, ptr %3, align 8
  %19 = getelementptr inbounds %struct._zend_string, ptr %18, i32 0, i32 2
  %20 = load i64, ptr %19, align 8
  %21 = icmp eq i64 %20, 3
  br i1 %21, label %22, label %31

22:                                               ; preds = %17
  %23 = load ptr, ptr %3, align 8
  %24 = getelementptr inbounds %struct._zend_string, ptr %23, i32 0, i32 3
  %25 = getelementptr inbounds [1 x i8], ptr %24, i64 0, i64 0
  %26 = load ptr, ptr %3, align 8
  %27 = getelementptr inbounds %struct._zend_string, ptr %26, i32 0, i32 2
  %28 = load i64, ptr %27, align 8
  %29 = call i32 @zend_binary_strcasecmp(ptr noundef %25, i64 noundef %28, ptr noundef @.str.2, i64 noundef 3)
  %30 = icmp ne i32 %29, 0
  br i1 %30, label %31, label %45

31:                                               ; preds = %22, %17
  %32 = load ptr, ptr %3, align 8
  %33 = getelementptr inbounds %struct._zend_string, ptr %32, i32 0, i32 2
  %34 = load i64, ptr %33, align 8
  %35 = icmp eq i64 %34, 2
  br i1 %35, label %36, label %46

36:                                               ; preds = %31
  %37 = load ptr, ptr %3, align 8
  %38 = getelementptr inbounds %struct._zend_string, ptr %37, i32 0, i32 3
  %39 = getelementptr inbounds [1 x i8], ptr %38, i64 0, i64 0
  %40 = load ptr, ptr %3, align 8
  %41 = getelementptr inbounds %struct._zend_string, ptr %40, i32 0, i32 2
  %42 = load i64, ptr %41, align 8
  %43 = call i32 @zend_binary_strcasecmp(ptr noundef %39, i64 noundef %42, ptr noundef @.str.3, i64 noundef 2)
  %44 = icmp ne i32 %43, 0
  br i1 %44, label %46, label %45

45:                                               ; preds = %36, %22, %8
  store i1 true, ptr %2, align 1
  br label %52

46:                                               ; preds = %36, %31
  %47 = load ptr, ptr %3, align 8
  %48 = getelementptr inbounds %struct._zend_string, ptr %47, i32 0, i32 3
  %49 = getelementptr inbounds [1 x i8], ptr %48, i64 0, i64 0
  %50 = call i32 @atoi(ptr noundef %49) #16
  %51 = icmp ne i32 %50, 0
  store i1 %51, ptr %2, align 1
  br label %52

52:                                               ; preds = %46, %45
  %53 = load i1, ptr %2, align 1
  ret i1 %53
}

; Function Attrs: nounwind uwtable
define i32 @OnUpdateBool(ptr noundef %0, ptr noundef %1, ptr noundef %2, ptr noundef %3, ptr noundef %4, i32 noundef %5) #0 {
  %7 = alloca ptr, align 8
  %8 = alloca ptr, align 8
  %9 = alloca ptr, align 8
  %10 = alloca ptr, align 8
  %11 = alloca ptr, align 8
  %12 = alloca i32, align 4
  %13 = alloca ptr, align 8
  store ptr %0, ptr %7, align 8
  store ptr %1, ptr %8, align 8
  store ptr %2, ptr %9, align 8
  store ptr %3, ptr %10, align 8
  store ptr %4, ptr %11, align 8
  store i32 %5, ptr %12, align 4
  %14 = load ptr, ptr %10, align 8
  %15 = load ptr, ptr %9, align 8
  %16 = ptrtoint ptr %15 to i64
  %17 = getelementptr inbounds i8, ptr %14, i64 %16
  store ptr %17, ptr %13, align 8
  %18 = load ptr, ptr %8, align 8
  %19 = call zeroext i1 @zend_ini_parse_bool(ptr noundef %18)
  %20 = load ptr, ptr %13, align 8
  %21 = zext i1 %19 to i8
  store i8 %21, ptr %20, align 1
  ret i32 0
}