; Function Attrs: nounwind uwtable
define noundef i32 @OnUpdateBool(ptr nocapture noundef readnone %0, ptr noundef %1, ptr noundef %2, ptr nocapture noundef writeonly %3, ptr nocapture noundef readnone %4, i32 noundef %5) local_unnamed_addr #0 {
  %7 = getelementptr inbounds i8, ptr %1, i64 16
  %8 = load i64, ptr %7, align 8
  %9 = icmp eq i64 %8, 4
  br i1 %9, label %10, label %13

10:                                               ; preds = %6
  %11 = getelementptr inbounds i8, ptr %1, i64 24
  %12 = tail call i32 @zend_binary_strcasecmp(ptr noundef nonnull %11, i64 noundef 4, ptr noundef nonnull @.str.1, i64 noundef 4) #20
  %.not.i = icmp eq i32 %12, 0
  br i1 %.not.i, label %zend_ini_parse_bool.exit, label %thread-pre-split.i

thread-pre-split.i:                               ; preds = %10
  %.pr.i = load i64, ptr %7, align 8
  br label %13

13:                                               ; preds = %thread-pre-split.i, %6
  %14 = phi i64 [ %.pr.i, %thread-pre-split.i ], [ %8, %6 ]
  %15 = icmp eq i64 %14, 3
  br i1 %15, label %16, label %19

16:                                               ; preds = %13
  %17 = getelementptr inbounds i8, ptr %1, i64 24
  %18 = tail call i32 @zend_binary_strcasecmp(ptr noundef nonnull %17, i64 noundef 3, ptr noundef nonnull @.str.2, i64 noundef 3) #20
  %.not14.i = icmp eq i32 %18, 0
  br i1 %.not14.i, label %zend_ini_parse_bool.exit, label %._crit_edge.i

._crit_edge.i:                                    ; preds = %16
  %.pre.i = load i64, ptr %7, align 8
  br label %19

19:                                               ; preds = %._crit_edge.i, %13
  %20 = phi i64 [ %.pre.i, %._crit_edge.i ], [ %14, %13 ]
  %21 = icmp eq i64 %20, 2
  br i1 %21, label %22, label %25

22:                                               ; preds = %19
  %23 = getelementptr inbounds i8, ptr %1, i64 24
  %24 = tail call i32 @zend_binary_strcasecmp(ptr noundef nonnull %23, i64 noundef 2, ptr noundef nonnull @.str.3, i64 noundef 2) #20
  %.not15.i = icmp eq i32 %24, 0
  br i1 %.not15.i, label %zend_ini_parse_bool.exit, label %25

25:                                               ; preds = %22, %19
  %26 = getelementptr inbounds i8, ptr %1, i64 24
  %27 = tail call i32 @atoi(ptr nocapture noundef nonnull %26) #22
  %28 = icmp ne i32 %27, 0
  %29 = zext i1 %28 to i8
  br label %zend_ini_parse_bool.exit

zend_ini_parse_bool.exit:                         ; preds = %10, %16, %22, %25
  %.0.i = phi i8 [ %29, %25 ], [ 1, %22 ], [ 1, %16 ], [ 1, %10 ]
  %30 = ptrtoint ptr %2 to i64
  %31 = getelementptr inbounds i8, ptr %3, i64 %30
  store i8 %.0.i, ptr %31, align 1
  ret i32 0
}